target datalayout = "e-m:e-p270:32:32-p271:32:32-p272:64:64-i64:64-i128:128-f80:128-n8:16:32:64-S128"
target triple = "x86_64-pc-linux-gnu"

%"class.llvm::ThreadPoolStrategy" = type <{ i32, i8, i8, [2 x i8] }>
%"struct.std::thread::_State" = type { ptr }
%class.anon.35 = type <{ ptr, %"class.llvm::ThreadPoolStrategy", i32, [4 x i8] }>
%"struct.std::thread::_State_impl.36" = type { %"struct.std::thread::_State", %"struct.std::thread::_Invoker.37" }
%"struct.std::thread::_Invoker.37" = type { %"class.std::tuple.38" }
%"class.std::tuple.38" = type { %"struct.std::_Tuple_impl.39" }
%"struct.std::_Tuple_impl.39" = type { %"struct.std::_Head_base.40" }
%"struct.std::_Head_base.40" = type { %class.anon.35 }

; Function Attrs: mustprogress nounwind uwtable
define internal noundef nonnull align 8 dereferenceable(20) ptr @_ZNSt10_Head_baseILm0EZZN4llvm8parallel6detail12_GLOBAL__N_118ThreadPoolExecutorC1ENS0_18ThreadPoolStrategyEENKUlvE_clEvEUlvE_Lb0EE7_M_headERS8_(ptr noundef nonnull align 8 dereferenceable(24) %0) #0 align 2 {
  %2 = alloca ptr, align 8
  store ptr %0, ptr %2, align 8
  %3 = load ptr, ptr %2, align 8
  %4 = getelementptr inbounds nuw %"struct.std::_Head_base.40", ptr %3, i32 0, i32 0
  ret ptr %4
}

; Function Attrs: mustprogress nounwind uwtable
define internal void @_ZZZN4llvm8parallel6detail12_GLOBAL__N_118ThreadPoolExecutorC1ENS_18ThreadPoolStrategyEENKUlvE_clEvENKUlvE_clEv(ptr noundef nonnull align 8 dereferenceable(20) %0) #0 align 2 {
  %2 = alloca ptr, align 8
  %3 = alloca %"class.llvm::ThreadPoolStrategy", align 4
  store ptr %0, ptr %2, align 8
  %4 = load ptr, ptr %2, align 8
  %5 = getelementptr inbounds nuw %class.anon.35, ptr %4, i32 0, i32 0
  %6 = load ptr, ptr %5, align 8
  %7 = getelementptr inbounds nuw %class.anon.35, ptr %4, i32 0, i32 1
  call void @llvm.memcpy.p0.p0.i64(ptr align 4 %3, ptr align 8 %7, i64 8, i1 false)
  %8 = getelementptr inbounds nuw %class.anon.35, ptr %4, i32 0, i32 2
  %9 = load i32, ptr %8, align 8
  %10 = load i64, ptr %3, align 4
  call void @_ZN4llvm8parallel6detail12_GLOBAL__N_118ThreadPoolExecutor4workENS_18ThreadPoolStrategyEj(ptr noundef nonnull align 8 dereferenceable(316) %6, i64 %10, i32 noundef %9)
  ret void
}

; Function Attrs: mustprogress nounwind uwtable
define internal noundef nonnull align 8 dereferenceable(20) ptr @_ZNSt11_Tuple_implILm0EJZZN4llvm8parallel6detail12_GLOBAL__N_118ThreadPoolExecutorC1ENS0_18ThreadPoolStrategyEENKUlvE_clEvEUlvE_EE7_M_headERS8_(ptr noundef nonnull align 8 dereferenceable(24) %0) #0 align 2 {
  %2 = alloca ptr, align 8
  store ptr %0, ptr %2, align 8
  %3 = load ptr, ptr %2, align 8
  %4 = call noundef nonnull align 8 dereferenceable(20) ptr @_ZNSt10_Head_baseILm0EZZN4llvm8parallel6detail12_GLOBAL__N_118ThreadPoolExecutorC1ENS0_18ThreadPoolStrategyEENKUlvE_clEvEUlvE_Lb0EE7_M_headERS8_(ptr noundef nonnull align 8 dereferenceable(24) %3) #2
  ret ptr %4
}

; Function Attrs: mustprogress nounwind uwtable
define internal void @_ZSt13__invoke_implIvZZN4llvm8parallel6detail12_GLOBAL__N_118ThreadPoolExecutorC1ENS0_18ThreadPoolStrategyEENKUlvE_clEvEUlvE_JEET_St14__invoke_otherOT0_DpOT1_(ptr noundef nonnull align 8 dereferenceable(20) %0) #0 {
  %2 = alloca ptr, align 8
  store ptr %0, ptr %2, align 8
  %3 = load ptr, ptr %2, align 8
  call void @_ZZZN4llvm8parallel6detail12_GLOBAL__N_118ThreadPoolExecutorC1ENS_18ThreadPoolStrategyEENKUlvE_clEvENKUlvE_clEv(ptr noundef nonnull align 8 dereferenceable(20) %3)
  ret void
}

; Function Attrs: mustprogress nounwind uwtable
define internal noundef nonnull align 8 dereferenceable(20) ptr @_ZSt12__get_helperILm0EZZN4llvm8parallel6detail12_GLOBAL__N_118ThreadPoolExecutorC1ENS0_18ThreadPoolStrategyEENKUlvE_clEvEUlvE_JEERT0_RSt11_Tuple_implIXT_EJS8_DpT1_EE(ptr noundef nonnull align 8 dereferenceable(24) %0) #0 {
  %2 = alloca ptr, align 8
  store ptr %0, ptr %2, align 8
  %3 = load ptr, ptr %2, align 8
  %4 = call noundef nonnull align 8 dereferenceable(20) ptr @_ZNSt11_Tuple_implILm0EJZZN4llvm8parallel6detail12_GLOBAL__N_118ThreadPoolExecutorC1ENS0_18ThreadPoolStrategyEENKUlvE_clEvEUlvE_EE7_M_headERS8_(ptr noundef nonnull align 8 dereferenceable(24) %3) #2
  ret ptr %4
}

; Function Attrs: mustprogress nounwind uwtable
define internal void @_ZSt8__invokeIZZN4llvm8parallel6detail12_GLOBAL__N_118ThreadPoolExecutorC1ENS0_18ThreadPoolStrategyEENKUlvE_clEvEUlvE_JEENSt15__invoke_resultIT_JDpT0_EE4typeEOS9_DpOSA_(ptr noundef nonnull align 8 dereferenceable(20) %0) #0 {
  %2 = alloca ptr, align 8
  store ptr %0, ptr %2, align 8
  %3 = load ptr, ptr %2, align 8
  call void @_ZSt13__invoke_implIvZZN4llvm8parallel6detail12_GLOBAL__N_118ThreadPoolExecutorC1ENS0_18ThreadPoolStrategyEENKUlvE_clEvEUlvE_JEET_St14__invoke_otherOT0_DpOT1_(ptr noundef nonnull align 8 dereferenceable(20) %3)
  ret void
}

; Function Attrs: mustprogress nounwind uwtable
define internal noundef nonnull align 8 dereferenceable(20) ptr @_ZSt3getILm0EJZZN4llvm8parallel6detail12_GLOBAL__N_118ThreadPoolExecutorC1ENS0_18ThreadPoolStrategyEENKUlvE_clEvEUlvE_EEONSt13tuple_elementIXT_ESt5tupleIJDpT0_EEE4typeEOSC_(ptr noundef nonnull align 8 dereferenceable(24) %0) #0 {
  %2 = alloca ptr, align 8
  store ptr %0, ptr %2, align 8
  %3 = load ptr, ptr %2, align 8
  %4 = call noundef nonnull align 8 dereferenceable(20) ptr @_ZSt12__get_helperILm0EZZN4llvm8parallel6detail12_GLOBAL__N_118ThreadPoolExecutorC1ENS0_18ThreadPoolStrategyEENKUlvE_clEvEUlvE_JEERT0_RSt11_Tuple_implIXT_EJS8_DpT1_EE(ptr noundef nonnull align 8 dereferenceable(24) %3) #2
  ret ptr %4
}

; Function Attrs: mustprogress nounwind uwtable
define internal void @_ZNSt6thread8_InvokerISt5tupleIJZZN4llvm8parallel6detail12_GLOBAL__N_118ThreadPoolExecutorC1ENS2_18ThreadPoolStrategyEENKUlvE_clEvEUlvE_EEE9_M_invokeIJLm0EEEEvSt12_Index_tupleIJXspT_EEE(ptr noundef nonnull align 8 dereferenceable(24) %0) #0 align 2 {
  %2 = alloca ptr, align 8
  store ptr %0, ptr %2, align 8
  %3 = load ptr, ptr %2, align 8
  %4 = getelementptr inbounds nuw %"struct.std::thread::_Invoker.37", ptr %3, i32 0, i32 0
  %5 = call noundef nonnull align 8 dereferenceable(20) ptr @_ZSt3getILm0EJZZN4llvm8parallel6detail12_GLOBAL__N_118ThreadPoolExecutorC1ENS0_18ThreadPoolStrategyEENKUlvE_clEvEUlvE_EEONSt13tuple_elementIXT_ESt5tupleIJDpT0_EEE4typeEOSC_(ptr noundef nonnull align 8 dereferenceable(24) %4) #2
  call void @_ZSt8__invokeIZZN4llvm8parallel6detail12_GLOBAL__N_118ThreadPoolExecutorC1ENS0_18ThreadPoolStrategyEENKUlvE_clEvEUlvE_JEENSt15__invoke_resultIT_JDpT0_EE4typeEOS9_DpOSA_(ptr noundef nonnull align 8 dereferenceable(20) %5)
  ret void
}

; Function Attrs: mustprogress nounwind uwtable
define internal void @_ZNSt6thread8_InvokerISt5tupleIJZZN4llvm8parallel6detail12_GLOBAL__N_118ThreadPoolExecutorC1ENS2_18ThreadPoolStrategyEENKUlvE_clEvEUlvE_EEEclEv(ptr noundef nonnull align 8 dereferenceable(24) %0) #0 align 2 {
  %2 = alloca ptr, align 8
  store ptr %0, ptr %2, align 8
  %3 = load ptr, ptr %2, align 8
  call void @_ZNSt6thread8_InvokerISt5tupleIJZZN4llvm8parallel6detail12_GLOBAL__N_118ThreadPoolExecutorC1ENS2_18ThreadPoolStrategyEENKUlvE_clEvEUlvE_EEE9_M_invokeIJLm0EEEEvSt12_Index_tupleIJXspT_EEE(ptr noundef nonnull align 8 dereferenceable(24) %3)
  ret void
}

; Function Attrs: mustprogress nounwind uwtable
define internal void @_ZNSt6thread11_State_implINS_8_InvokerISt5tupleIJZZN4llvm8parallel6detail12_GLOBAL__N_118ThreadPoolExecutorC1ENS3_18ThreadPoolStrategyEENKUlvE_clEvEUlvE_EEEEE6_M_runEv(ptr noundef nonnull align 8 dereferenceable(32) %0) unnamed_addr #0 align 2 {
  %2 = alloca ptr, align 8
  store ptr %0, ptr %2, align 8
  %3 = load ptr, ptr %2, align 8
  %4 = getelementptr inbounds nuw %"struct.std::thread::_State_impl.36", ptr %3, i32 0, i32 1
  call void @_ZNSt6thread8_InvokerISt5tupleIJZZN4llvm8parallel6detail12_GLOBAL__N_118ThreadPoolExecutorC1ENS2_18ThreadPoolStrategyEENKUlvE_clEvEUlvE_EEEclEv(ptr noundef nonnull align 8 dereferenceable(24) %4)
  ret void
}