; Function Attrs: mustprogress nounwind uwtable
define internal void @_ZNSt6thread11_State_implINS_8_InvokerISt5tupleIJZZN4llvm8parallel6detail12_GLOBAL__N_118ThreadPoolExecutorC1ENS3_18ThreadPoolStrategyEENKUlvE_clEvEUlvE_EEEEE6_M_runEv(ptr nocapture noundef nonnull readonly align 8 dereferenceable(32) %0) unnamed_addr #0 align 2 {
  %2 = getelementptr inbounds nuw i8, ptr %0, i64 8
  %3 = load ptr, ptr %2, align 8
  %4 = getelementptr inbounds i8, ptr %0, i64 16
  %.sroa.0.0.copyload.i.i.i.i.i = load i64, ptr %4, align 8
  %5 = getelementptr inbounds i8, ptr %0, i64 24
  %6 = load i32, ptr %5, align 8
  tail call fastcc void @_ZN4llvm8parallel6detail12_GLOBAL__N_118ThreadPoolExecutor4workENS_18ThreadPoolStrategyEj(ptr noundef nonnull align 8 dereferenceable(316) %3, i64 %.sroa.0.0.copyload.i.i.i.i.i, i32 noundef %6)
  ret void
}